target datalayout = "e-m:e-p270:32:32-p271:32:32-p272:64:64-i64:64-i128:128-f80:128-n8:16:32:64-S128"
target triple = "x86_64-pc-linux-gnu"

@serverSocketFD = internal global i32 -1, align 4
@.str.31 = private unnamed_addr constant [20 x i8] c"connection not open\00", align 1
@.str.32 = private unnamed_addr constant [13 x i8] c"close failed\00", align 1

; Function Attrs: nounwind uwtable
define internal i32 @socketTransport_stopListening(ptr noundef %0) #0 {
  %2 = alloca i32, align 4
  %3 = alloca ptr, align 8
  store ptr %0, ptr %3, align 8
  %4 = load i32, ptr @serverSocketFD, align 4
  %5 = icmp slt i32 %4, 0
  br i1 %5, label %6, label %7

6:                                                ; preds = %1
  call void @setLastError(i32 noundef 201, ptr noundef @.str.31)
  store i32 201, ptr %2, align 4
  br label %13

7:                                                ; preds = %1
  %8 = load i32, ptr @serverSocketFD, align 4
  %9 = call i32 @dbgsysSocketClose(i32 noundef %8)
  %10 = icmp slt i32 %9, 0
  br i1 %10, label %11, label %12

11:                                               ; preds = %7
  call void @setLastError(i32 noundef 202, ptr noundef @.str.32)
  store i32 202, ptr %2, align 4
  br label %13

12:                                               ; preds = %7
  store i32 -1, ptr @serverSocketFD, align 4
  store i32 0, ptr %2, align 4
  br label %13

13:                                               ; preds = %12, %11, %6
  %14 = load i32, ptr %2, align 4
  ret i32 %14
}