; Function Attrs: nounwind uwtable
define internal range(i32 0, 203) i32 @socketTransport_stopListening(ptr nocapture readnone %0) #0 {
  %2 = load i32, ptr @serverSocketFD, align 4
  %3 = icmp slt i32 %2, 0
  br i1 %3, label %4, label %17

4:                                                ; preds = %1
  %5 = load i32, ptr @tlsIndex, align 4
  %6 = tail call ptr @dbgsysTlsGet(i32 noundef %5) #13
  %.not.i = icmp eq ptr %6, null
  br i1 %.not.i, label %11, label %7

7:                                                ; preds = %4
  %8 = load ptr, ptr @callback, align 8
  %9 = getelementptr inbounds i8, ptr %8, i64 8
  %10 = load ptr, ptr %9, align 8
  tail call void %10(ptr noundef nonnull %6) #13
  br label %11

11:                                               ; preds = %7, %4
  %12 = load ptr, ptr @callback, align 8
  %13 = load ptr, ptr %12, align 8
  %14 = tail call ptr %13(i32 noundef 20) #13
  %.not21.i = icmp eq ptr %14, null
  br i1 %.not21.i, label %setLastError.exit, label %15

15:                                               ; preds = %11
  tail call void @llvm.memcpy.p0.p0.i64(ptr noundef nonnull align 1 dereferenceable(20) %14, ptr noundef nonnull readonly align 1 dereferenceable(20) @.str.31, i64 20, i1 false) #13
  br label %setLastError.exit

setLastError.exit:                                ; preds = %11, %15
  %16 = load i32, ptr @tlsIndex, align 4
  tail call void @dbgsysTlsPut(i32 noundef %16, ptr noundef %14) #13
  br label %22

17:                                               ; preds = %1
  %18 = tail call i32 @dbgsysSocketClose(i32 noundef %2) #13
  %19 = icmp slt i32 %18, 0
  br i1 %19, label %20, label %21

20:                                               ; preds = %17
  tail call fastcc void @setLastError(i32 noundef 202, ptr noundef nonnull @.str.32)
  br label %22

21:                                               ; preds = %17
  store i32 -1, ptr @serverSocketFD, align 4
  br label %22

22:                                               ; preds = %21, %20, %setLastError.exit
  %.0 = phi i32 [ 201, %setLastError.exit ], [ 202, %20 ], [ 0, %21 ]
  ret i32 %.0
}